; Function Attrs: nounwind uwtable
define i64 @Gia_ObjComputeTruth6(ptr noundef %0, i32 noundef %1, ptr noundef readonly captures(none) %2, ptr noundef %3) local_unnamed_addr #2 {
  tail call void @Gia_ManIncrementTravId(ptr noundef %0) #23
  %5 = getelementptr i8, ptr %2, i64 4
  %.val1520 = load i32, ptr %5, align 4, !tbaa !36
  %6 = icmp sgt i32 %.val1520, 0
  br i1 %6, label %.lr.ph, label %.critedge

.lr.ph:                                           ; preds = %4
  %7 = getelementptr i8, ptr %2, i64 8
  %.val = load ptr, ptr %7, align 8, !tbaa !30
  %8 = getelementptr i8, ptr %0, i64 176
  %9 = getelementptr i8, ptr %0, i64 616
  %.val18 = load ptr, ptr %9, align 8, !tbaa !43
  %10 = getelementptr i8, ptr %3, i64 8
  %.val19 = load ptr, ptr %10, align 8, !tbaa !44
  %.val17.pre = load i32, ptr %8, align 8, !tbaa !42
  br label %11

11:                                               ; preds = %.lr.ph, %11
  %indvars.iv = phi i64 [ 0, %.lr.ph ], [ %indvars.iv.next, %11 ]
  %12 = getelementptr inbounds nuw i32, ptr %.val, i64 %indvars.iv
  %13 = load i32, ptr %12, align 4, !tbaa !31
  %14 = sext i32 %13 to i64
  %15 = getelementptr inbounds i32, ptr %.val18, i64 %14
  store i32 %.val17.pre, ptr %15, align 4, !tbaa !31
  %16 = getelementptr inbounds nuw [6 x i64], ptr @s_Truth6, i64 0, i64 %indvars.iv
  %17 = load i64, ptr %16, align 8, !tbaa !28
  %18 = getelementptr inbounds i64, ptr %.val19, i64 %14
  store i64 %17, ptr %18, align 8, !tbaa !28
  %indvars.iv.next = add nuw nsw i64 %indvars.iv, 1
  %.val15 = load i32, ptr %5, align 4, !tbaa !36
  %19 = sext i32 %.val15 to i64
  %20 = icmp slt i64 %indvars.iv.next, %19
  br i1 %20, label %11, label %.critedge, !llvm.loop !50

.critedge:                                        ; preds = %11, %4
  tail call void @Gia_ObjComputeTruthTable6Lut_rec(ptr noundef %0, i32 noundef %1, ptr noundef %3)
  %21 = getelementptr i8, ptr %3, i64 8
  %.val16 = load ptr, ptr %21, align 8, !tbaa !44
  %22 = sext i32 %1 to i64
  %23 = getelementptr inbounds i64, ptr %.val16, i64 %22
  %24 = load i64, ptr %23, align 8, !tbaa !28
  ret i64 %24
}